target datalayout = "e-m:e-p270:32:32-p271:32:32-p272:64:64-i64:64-i128:128-f80:128-n8:16:32:64-S128"
target triple = "x86_64-pc-linux-gnu"

; Function Attrs: nounwind uwtable
define internal i32 @get_xml_attr(ptr noundef %0, ptr noundef %1) #0 {
  %3 = alloca i32, align 4
  %4 = alloca ptr, align 8
  %5 = alloca ptr, align 8
  %6 = alloca i32, align 4
  %7 = alloca i32, align 4
  store ptr %0, ptr %4, align 8, !tbaa !30
  store ptr %1, ptr %5, align 8, !tbaa !32
  call void @llvm.lifetime.start.p0(i64 4, ptr %6) #14
  store i32 0, ptr %6, align 4, !tbaa !11
  br label %8

8:                                                ; preds = %27, %2
  %9 = load ptr, ptr %5, align 8, !tbaa !32
  %10 = load i32, ptr %6, align 4, !tbaa !11
  %11 = sext i32 %10 to i64
  %12 = getelementptr inbounds ptr, ptr %9, i64 %11
  %13 = load ptr, ptr %12, align 8, !tbaa !30
  %14 = icmp ne ptr %13, null
  br i1 %14, label %15, label %30

15:                                               ; preds = %8
  %16 = load ptr, ptr %4, align 8, !tbaa !30
  %17 = load ptr, ptr %5, align 8, !tbaa !32
  %18 = load i32, ptr %6, align 4, !tbaa !11
  %19 = sext i32 %18 to i64
  %20 = getelementptr inbounds ptr, ptr %17, i64 %19
  %21 = load ptr, ptr %20, align 8, !tbaa !30
  %22 = call i32 @strcmp(ptr noundef %16, ptr noundef %21) #16
  %23 = icmp eq i32 %22, 0
  br i1 %23, label %24, label %27

24:                                               ; preds = %15
  %25 = load i32, ptr %6, align 4, !tbaa !11
  %26 = add nsw i32 %25, 1
  store i32 %26, ptr %3, align 4
  store i32 1, ptr %7, align 4
  br label %31

27:                                               ; preds = %15
  %28 = load i32, ptr %6, align 4, !tbaa !11
  %29 = add nsw i32 %28, 2
  store i32 %29, ptr %6, align 4, !tbaa !11
  br label %8, !llvm.loop !55

30:                                               ; preds = %8
  store i32 -1, ptr %3, align 4
  store i32 1, ptr %7, align 4
  br label %31

31:                                               ; preds = %30, %24
  call void @llvm.lifetime.end.p0(i64 4, ptr %6) #14
  %32 = load i32, ptr %3, align 4
  ret i32 %32
}