; Function Attrs: nofree nounwind memory(read, inaccessiblemem: none) uwtable
define internal fastcc range(i32 1, 0) i32 @get_xml_attr(ptr noundef readonly captures(none) %0, ptr noundef readonly captures(none) %1) unnamed_addr #11 {
  %3 = load ptr, ptr %1, align 8, !tbaa !29
  %.not10 = icmp eq ptr %3, null
  br i1 %.not10, label %.loopexit, label %.lr.ph

.lr.ph:                                           ; preds = %2, %10
  %indvars.iv = phi i64 [ %indvars.iv.next, %10 ], [ 0, %2 ]
  %4 = phi ptr [ %12, %10 ], [ %3, %2 ]
  %5 = tail call i32 @strcmp(ptr noundef nonnull dereferenceable(1) %0, ptr noundef nonnull dereferenceable(1) %4) #27
  %6 = icmp eq i32 %5, 0
  br i1 %6, label %7, label %10

7:                                                ; preds = %.lr.ph
  %8 = trunc nuw nsw i64 %indvars.iv to i32
  %9 = or disjoint i32 %8, 1
  br label %.loopexit

10:                                               ; preds = %.lr.ph
  %indvars.iv.next = add nuw nsw i64 %indvars.iv, 2
  %11 = getelementptr inbounds nuw ptr, ptr %1, i64 %indvars.iv.next
  %12 = load ptr, ptr %11, align 8, !tbaa !29
  %.not = icmp eq ptr %12, null
  br i1 %.not, label %.loopexit, label %.lr.ph, !llvm.loop !31

.loopexit:                                        ; preds = %10, %2, %7
  %.07 = phi i32 [ %9, %7 ], [ -1, %2 ], [ -1, %10 ]
  ret i32 %.07
}